target datalayout = "e-m:e-p270:32:32-p271:32:32-p272:64:64-i64:64-i128:128-f80:128-n8:16:32:64-S128"
target triple = "x86_64-pc-linux-gnu"

%struct.libdeflate_compressor = type { ptr, ptr, i32, i64, i32, i32, %struct.deflate_freqs, %struct.block_split_stats, %struct.deflate_codes, %struct.deflate_codes, %union.anon, [4 x i8], %union.anon.1 }
%struct.deflate_freqs = type { [288 x i32], [32 x i32] }
%struct.block_split_stats = type { [10 x i32], [10 x i32], i32, i32 }
%struct.deflate_codes = type { %struct.deflate_codewords, %struct.deflate_lens }
%struct.deflate_codewords = type { [288 x i32], [32 x i32] }
%struct.deflate_lens = type { [288 x i8], [32 x i8] }
%union.anon = type { %struct.anon }
%struct.anon = type { [19 x i32], [19 x i32], [19 x i8], [320 x i32], i32, i32, i32, i32 }
%union.anon.1 = type { %struct.anon.4 }
%struct.anon.4 = type { %struct.bt_matchfinder, [1500513 x %struct.lz_match], [305000 x %struct.deflate_optimum_node], %struct.deflate_costs, %struct.deflate_costs, [32769 x i8], [10 x i32], i32, [259 x i32], [259 x i32], i32, i32, i32, i32, [12 x i8] }
%struct.bt_matchfinder = type { [65536 x [2 x i16]], [65536 x i16], [65536 x i16] }
%struct.lz_match = type { i16, i16 }
%struct.deflate_optimum_node = type { i32, i32 }
%struct.deflate_costs = type { [256 x i32], [259 x i32], [32 x i32] }
%struct.deflate_output_bitstream = type { i64, i32, ptr, ptr, i8 }

; Function Attrs: nounwind uwtable
define i64 @libdeflate_deflate_compress(ptr noundef %0, ptr noundef %1, i64 noundef %2, ptr noundef %3, i64 noundef %4) #0 {
  %6 = alloca i64, align 8
  %7 = alloca ptr, align 8
  %8 = alloca ptr, align 8
  %9 = alloca i64, align 8
  %10 = alloca ptr, align 8
  %11 = alloca i64, align 8
  %12 = alloca %struct.deflate_output_bitstream, align 8
  %13 = alloca i32, align 4
  store ptr %0, ptr %7, align 8, !tbaa !17
  store ptr %1, ptr %8, align 8, !tbaa !16
  store i64 %2, ptr %9, align 8, !tbaa !11
  store ptr %3, ptr %10, align 8, !tbaa !16
  store i64 %4, ptr %11, align 8, !tbaa !11
  call void @llvm.lifetime.start.p0(i64 40, ptr %12) #10
  %14 = load i64, ptr %9, align 8, !tbaa !11
  %15 = load ptr, ptr %7, align 8, !tbaa !17
  %16 = getelementptr inbounds nuw %struct.libdeflate_compressor, ptr %15, i32 0, i32 3
  %17 = load i64, ptr %16, align 8, !tbaa !28
  %18 = icmp ule i64 %14, %17
  %19 = xor i1 %18, true
  %20 = xor i1 %19, true
  %21 = zext i1 %20 to i32
  %22 = sext i32 %21 to i64
  %23 = call i64 @llvm.expect.i64(i64 %22, i64 0)
  %24 = icmp ne i64 %23, 0
  br i1 %24, label %25, label %31

25:                                               ; preds = %5
  %26 = load ptr, ptr %8, align 8, !tbaa !16
  %27 = load i64, ptr %9, align 8, !tbaa !11
  %28 = load ptr, ptr %10, align 8, !tbaa !16
  %29 = load i64, ptr %11, align 8, !tbaa !11
  %30 = call i64 @deflate_compress_none(ptr noundef %26, i64 noundef %27, ptr noundef %28, i64 noundef %29)
  store i64 %30, ptr %6, align 8
  store i32 1, ptr %13, align 4
  br label %70

31:                                               ; preds = %5
  %32 = getelementptr inbounds nuw %struct.deflate_output_bitstream, ptr %12, i32 0, i32 0
  store i64 0, ptr %32, align 8, !tbaa !51
  %33 = getelementptr inbounds nuw %struct.deflate_output_bitstream, ptr %12, i32 0, i32 1
  store i32 0, ptr %33, align 8, !tbaa !52
  %34 = load ptr, ptr %10, align 8, !tbaa !16
  %35 = getelementptr inbounds nuw %struct.deflate_output_bitstream, ptr %12, i32 0, i32 2
  store ptr %34, ptr %35, align 8, !tbaa !53
  %36 = getelementptr inbounds nuw %struct.deflate_output_bitstream, ptr %12, i32 0, i32 2
  %37 = load ptr, ptr %36, align 8, !tbaa !53
  %38 = load i64, ptr %11, align 8, !tbaa !11
  %39 = getelementptr inbounds nuw i8, ptr %37, i64 %38
  %40 = getelementptr inbounds nuw %struct.deflate_output_bitstream, ptr %12, i32 0, i32 3
  store ptr %39, ptr %40, align 8, !tbaa !54
  %41 = getelementptr inbounds nuw %struct.deflate_output_bitstream, ptr %12, i32 0, i32 4
  store i8 0, ptr %41, align 8, !tbaa !39
  %42 = load ptr, ptr %7, align 8, !tbaa !17
  %43 = getelementptr inbounds nuw %struct.libdeflate_compressor, ptr %42, i32 0, i32 0
  %44 = load ptr, ptr %43, align 32, !tbaa !29
  %45 = load ptr, ptr %7, align 8, !tbaa !17
  %46 = load ptr, ptr %8, align 8, !tbaa !16
  %47 = load i64, ptr %9, align 8, !tbaa !11
  call void %44(ptr noundef %45, ptr noundef %46, i64 noundef %47, ptr noundef %12)
  %48 = getelementptr inbounds nuw %struct.deflate_output_bitstream, ptr %12, i32 0, i32 4
  %49 = load i8, ptr %48, align 8, !tbaa !39, !range !42, !noundef !43
  %50 = trunc i8 %49 to i1
  br i1 %50, label %51, label %52

51:                                               ; preds = %31
  store i64 0, ptr %6, align 8
  store i32 1, ptr %13, align 4
  br label %70

52:                                               ; preds = %31
  %53 = getelementptr inbounds nuw %struct.deflate_output_bitstream, ptr %12, i32 0, i32 1
  %54 = load i32, ptr %53, align 8, !tbaa !52
  %55 = icmp ne i32 %54, 0
  br i1 %55, label %56, label %63

56:                                               ; preds = %52
  %57 = getelementptr inbounds nuw %struct.deflate_output_bitstream, ptr %12, i32 0, i32 0
  %58 = load i64, ptr %57, align 8, !tbaa !51
  %59 = trunc i64 %58 to i8
  %60 = getelementptr inbounds nuw %struct.deflate_output_bitstream, ptr %12, i32 0, i32 2
  %61 = load ptr, ptr %60, align 8, !tbaa !53
  %62 = getelementptr inbounds nuw i8, ptr %61, i32 1
  store ptr %62, ptr %60, align 8, !tbaa !53
  store i8 %59, ptr %61, align 1, !tbaa !32
  br label %63

63:                                               ; preds = %56, %52
  %64 = getelementptr inbounds nuw %struct.deflate_output_bitstream, ptr %12, i32 0, i32 2
  %65 = load ptr, ptr %64, align 8, !tbaa !53
  %66 = load ptr, ptr %10, align 8, !tbaa !16
  %67 = ptrtoint ptr %65 to i64
  %68 = ptrtoint ptr %66 to i64
  %69 = sub i64 %67, %68
  store i64 %69, ptr %6, align 8
  store i32 1, ptr %13, align 4
  br label %70

70:                                               ; preds = %63, %51, %25
  call void @llvm.lifetime.end.p0(i64 40, ptr %12) #10
  %71 = load i64, ptr %6, align 8
  ret i64 %71
}