; Function Attrs: nounwind uwtable
define i64 @libdeflate_deflate_compress(ptr noundef %0, ptr noundef %1, i64 noundef %2, ptr noundef %3, i64 noundef %4) local_unnamed_addr #0 {
  %6 = alloca %struct.deflate_output_bitstream, align 8
  call void @llvm.lifetime.start.p0(i64 40, ptr nonnull %6) #15
  %7 = getelementptr inbounds nuw i8, ptr %0, i64 24
  %8 = load i64, ptr %7, align 8, !tbaa !21
  %.not = icmp ugt i64 %2, %8
  br i1 %.not, label %11, label %9, !prof !32

9:                                                ; preds = %5
  %10 = tail call fastcc i64 @deflate_compress_none(ptr noundef %1, i64 noundef %2, ptr noundef %3, i64 noundef %4)
  br label %32

11:                                               ; preds = %5
  store i64 0, ptr %6, align 8, !tbaa !54
  %12 = getelementptr inbounds nuw i8, ptr %6, i64 8
  store i32 0, ptr %12, align 8, !tbaa !55
  %13 = getelementptr inbounds nuw i8, ptr %6, i64 16
  store ptr %3, ptr %13, align 8, !tbaa !56
  %14 = getelementptr inbounds nuw i8, ptr %3, i64 %4
  %15 = getelementptr inbounds nuw i8, ptr %6, i64 24
  store ptr %14, ptr %15, align 8, !tbaa !57
  %16 = getelementptr inbounds nuw i8, ptr %6, i64 32
  store i8 0, ptr %16, align 8, !tbaa !35
  %17 = load ptr, ptr %0, align 32, !tbaa !22
  call void %17(ptr noundef nonnull %0, ptr noundef %1, i64 noundef %2, ptr noundef nonnull %6) #15
  %18 = load i8, ptr %16, align 8, !tbaa !35, !range !39, !noundef !40
  %19 = trunc nuw i8 %18 to i1
  br i1 %19, label %32, label %20

20:                                               ; preds = %11
  %21 = load i32, ptr %12, align 8, !tbaa !55
  %.not14 = icmp eq i32 %21, 0
  br i1 %.not14, label %27, label %22

22:                                               ; preds = %20
  %23 = load i64, ptr %6, align 8, !tbaa !54
  %24 = trunc i64 %23 to i8
  %25 = load ptr, ptr %13, align 8, !tbaa !56
  %26 = getelementptr inbounds nuw i8, ptr %25, i64 1
  store ptr %26, ptr %13, align 8, !tbaa !56
  store i8 %24, ptr %25, align 1, !tbaa !25
  br label %27

27:                                               ; preds = %22, %20
  %28 = load ptr, ptr %13, align 8, !tbaa !56
  %29 = ptrtoint ptr %28 to i64
  %30 = ptrtoint ptr %3 to i64
  %31 = sub i64 %29, %30
  br label %32

32:                                               ; preds = %11, %27, %9
  %.0 = phi i64 [ %10, %9 ], [ %31, %27 ], [ 0, %11 ]
  call void @llvm.lifetime.end.p0(i64 40, ptr nonnull %6) #15
  ret i64 %.0
}